; Function Attrs: mustprogress nofree norecurse nosync nounwind willreturn memory(readwrite, inaccessiblemem: none) uwtable
define noundef zeroext i1 @_ZN7mitsuba6Thread26unregister_external_threadEv() local_unnamed_addr #22 align 2 {
  %1 = tail call align 8 ptr @llvm.threadlocal.address.p0(ptr align 8 @_ZN7mitsubaL4selfE)
  %2 = load ptr, ptr %1, align 8
  %.not = icmp eq ptr %2, null
  br i1 %.not, label %11, label %3

3:                                                ; preds = %0
  %4 = getelementptr inbounds i8, ptr %2, i64 16
  %5 = load ptr, ptr %4, align 8
  %6 = getelementptr inbounds i8, ptr %5, i64 41
  %7 = load i8, ptr %6, align 1
  %8 = and i8 %7, 1
  %.not2 = icmp eq i8 %8, 0
  br i1 %.not2, label %11, label %9

9:                                                ; preds = %3
  %10 = getelementptr inbounds i8, ptr %5, i64 40
  store i8 0, ptr %10, align 8
  br label %11

11:                                               ; preds = %0, %3, %9
  %.0 = phi i1 [ true, %9 ], [ false, %3 ], [ false, %0 ]
  ret i1 %.0
}